; Function Attrs: mustprogress uwtable
define noundef double @_ZNK8QuantLib16BSMRNDCalculator3pdfEdd(ptr nocapture noundef nonnull readonly align 8 dereferenceable(24) %this, double noundef %x, double noundef %t) unnamed_addr #3 align 2 {
entry:
  %ref.tmp = alloca %"class.QuantLib::NormalDistribution", align 8
  %call = tail call { double, double } @_ZNK8QuantLib16BSMRNDCalculator18distributionParamsEdd(ptr noundef nonnull align 8 dereferenceable(24) %this, double noundef %x, double noundef %t)
  %0 = extractvalue { double, double } %call, 0
  %1 = extractvalue { double, double } %call, 1
  call void @llvm.lifetime.start.p0(i64 40, ptr nonnull %ref.tmp) #19
  call void @_ZN8QuantLib18NormalDistributionC2Edd(ptr noundef nonnull align 8 dereferenceable(40) %ref.tmp, double noundef %0, double noundef %1)
  %2 = load double, ptr %ref.tmp, align 8, !tbaa !31
  %sub.i = fsub double %x, %2
  %3 = fneg double %sub.i
  %fneg.i = fmul double %sub.i, %3
  %denominator_.i = getelementptr inbounds nuw i8, ptr %ref.tmp, i64 24
  %4 = load double, ptr %denominator_.i, align 8, !tbaa !34
  %div.i = fdiv double %fneg.i, %4
  %cmp.i = fcmp ugt double %div.i, -6.900000e+02
  br i1 %cmp.i, label %cond.false.i, label %_ZNK8QuantLib18NormalDistributionclEd.exit

cond.false.i:                                     ; preds = %entry
  %normalizationFactor_.i = getelementptr inbounds nuw i8, ptr %ref.tmp, i64 16
  %5 = load double, ptr %normalizationFactor_.i, align 8, !tbaa !35
  %call.i = call double @exp(double noundef %div.i) #19, !tbaa !23
  %mul2.i = fmul double %5, %call.i
  br label %_ZNK8QuantLib18NormalDistributionclEd.exit

_ZNK8QuantLib18NormalDistributionclEd.exit:       ; preds = %entry, %cond.false.i
  %cond.i = phi double [ %mul2.i, %cond.false.i ], [ 0.000000e+00, %entry ]
  call void @llvm.lifetime.end.p0(i64 40, ptr nonnull %ref.tmp) #19
  ret double %cond.i
}